
test:     formato del file elf64-x86-64


Disassemblamento della sezione .init:

0000000000401000 <_init>:
  401000:	f3 0f 1e fa          	endbr64 
  401004:	48 83 ec 08          	sub    rsp,0x8
  401008:	48 8b 05 e9 2f 00 00 	mov    rax,QWORD PTR [rip+0x2fe9]        # 403ff8 <__gmon_start__>
  40100f:	48 85 c0             	test   rax,rax
  401012:	74 02                	je     401016 <_init+0x16>
  401014:	ff d0                	call   rax
  401016:	48 83 c4 08          	add    rsp,0x8
  40101a:	c3                   	ret    

Disassemblamento della sezione .plt:

0000000000401020 <.plt>:
  401020:	ff 35 e2 2f 00 00    	push   QWORD PTR [rip+0x2fe2]        # 404008 <_GLOBAL_OFFSET_TABLE_+0x8>
  401026:	f2 ff 25 e3 2f 00 00 	bnd jmp QWORD PTR [rip+0x2fe3]        # 404010 <_GLOBAL_OFFSET_TABLE_+0x10>
  40102d:	0f 1f 00             	nop    DWORD PTR [rax]
  401030:	f3 0f 1e fa          	endbr64 
  401034:	68 00 00 00 00       	push   0x0
  401039:	f2 e9 e1 ff ff ff    	bnd jmp 401020 <.plt>
  40103f:	90                   	nop
  401040:	f3 0f 1e fa          	endbr64 
  401044:	68 01 00 00 00       	push   0x1
  401049:	f2 e9 d1 ff ff ff    	bnd jmp 401020 <.plt>
  40104f:	90                   	nop

Disassemblamento della sezione .plt.sec:

0000000000401050 <__printf_chk@plt>:
  401050:	f3 0f 1e fa          	endbr64 
  401054:	f2 ff 25 bd 2f 00 00 	bnd jmp QWORD PTR [rip+0x2fbd]        # 404018 <__printf_chk@GLIBC_2.3.4>
  40105b:	0f 1f 44 00 00       	nop    DWORD PTR [rax+rax*1+0x0]

0000000000401060 <sqrt@plt>:
  401060:	f3 0f 1e fa          	endbr64 
  401064:	f2 ff 25 b5 2f 00 00 	bnd jmp QWORD PTR [rip+0x2fb5]        # 404020 <sqrt@GLIBC_2.2.5>
  40106b:	0f 1f 44 00 00       	nop    DWORD PTR [rax+rax*1+0x0]

Disassemblamento della sezione .text:

0000000000401070 <_start>:
  401070:	f3 0f 1e fa          	endbr64 
  401074:	31 ed                	xor    ebp,ebp
  401076:	49 89 d1             	mov    r9,rdx
  401079:	5e                   	pop    rsi
  40107a:	48 89 e2             	mov    rdx,rsp
  40107d:	48 83 e4 f0          	and    rsp,0xfffffffffffffff0
  401081:	50                   	push   rax
  401082:	54                   	push   rsp
  401083:	49 c7 c0 50 12 40 00 	mov    r8,0x401250
  40108a:	48 c7 c1 e0 11 40 00 	mov    rcx,0x4011e0
  401091:	48 c7 c7 8a 11 40 00 	mov    rdi,0x40118a
  401098:	ff 15 52 2f 00 00    	call   QWORD PTR [rip+0x2f52]        # 403ff0 <__libc_start_main@GLIBC_2.2.5>
  40109e:	f4                   	hlt    
  40109f:	90                   	nop

00000000004010a0 <_dl_relocate_static_pie>:
  4010a0:	f3 0f 1e fa          	endbr64 
  4010a4:	c3                   	ret    
  4010a5:	66 2e 0f 1f 84 00 00 	nop    WORD PTR cs:[rax+rax*1+0x0]
  4010ac:	00 00 00 
  4010af:	90                   	nop

00000000004010b0 <deregister_tm_clones>:
  4010b0:	b8 38 40 40 00       	mov    eax,0x404038
  4010b5:	48 3d 38 40 40 00    	cmp    rax,0x404038
  4010bb:	74 13                	je     4010d0 <deregister_tm_clones+0x20>
  4010bd:	b8 00 00 00 00       	mov    eax,0x0
  4010c2:	48 85 c0             	test   rax,rax
  4010c5:	74 09                	je     4010d0 <deregister_tm_clones+0x20>
  4010c7:	bf 38 40 40 00       	mov    edi,0x404038
  4010cc:	ff e0                	jmp    rax
  4010ce:	66 90                	xchg   ax,ax
  4010d0:	c3                   	ret    
  4010d1:	66 66 2e 0f 1f 84 00 	data16 nop WORD PTR cs:[rax+rax*1+0x0]
  4010d8:	00 00 00 00 
  4010dc:	0f 1f 40 00          	nop    DWORD PTR [rax+0x0]

00000000004010e0 <register_tm_clones>:
  4010e0:	be 38 40 40 00       	mov    esi,0x404038
  4010e5:	48 81 ee 38 40 40 00 	sub    rsi,0x404038
  4010ec:	48 89 f0             	mov    rax,rsi
  4010ef:	48 c1 ee 3f          	shr    rsi,0x3f
  4010f3:	48 c1 f8 03          	sar    rax,0x3
  4010f7:	48 01 c6             	add    rsi,rax
  4010fa:	48 d1 fe             	sar    rsi,1
  4010fd:	74 11                	je     401110 <register_tm_clones+0x30>
  4010ff:	b8 00 00 00 00       	mov    eax,0x0
  401104:	48 85 c0             	test   rax,rax
  401107:	74 07                	je     401110 <register_tm_clones+0x30>
  401109:	bf 38 40 40 00       	mov    edi,0x404038
  40110e:	ff e0                	jmp    rax
  401110:	c3                   	ret    
  401111:	66 66 2e 0f 1f 84 00 	data16 nop WORD PTR cs:[rax+rax*1+0x0]
  401118:	00 00 00 00 
  40111c:	0f 1f 40 00          	nop    DWORD PTR [rax+0x0]

0000000000401120 <__do_global_dtors_aux>:
  401120:	f3 0f 1e fa          	endbr64 
  401124:	80 3d 0d 2f 00 00 00 	cmp    BYTE PTR [rip+0x2f0d],0x0        # 404038 <__TMC_END__>
  40112b:	75 13                	jne    401140 <__do_global_dtors_aux+0x20>
  40112d:	55                   	push   rbp
  40112e:	48 89 e5             	mov    rbp,rsp
  401131:	e8 7a ff ff ff       	call   4010b0 <deregister_tm_clones>
  401136:	c6 05 fb 2e 00 00 01 	mov    BYTE PTR [rip+0x2efb],0x1        # 404038 <__TMC_END__>
  40113d:	5d                   	pop    rbp
  40113e:	c3                   	ret    
  40113f:	90                   	nop
  401140:	c3                   	ret    
  401141:	66 66 2e 0f 1f 84 00 	data16 nop WORD PTR cs:[rax+rax*1+0x0]
  401148:	00 00 00 00 
  40114c:	0f 1f 40 00          	nop    DWORD PTR [rax+0x0]

0000000000401150 <frame_dummy>:
  401150:	f3 0f 1e fa          	endbr64 
  401154:	eb 8a                	jmp    4010e0 <register_tm_clones>

0000000000401156 <foo>:
  401156:	f3 0f 1e fa          	endbr64 
  40115a:	48 83 ec 18          	sub    rsp,0x18
  40115e:	f2 0f 11 04 24       	movsd  QWORD PTR [rsp],xmm0
  401163:	dd 04 24             	fld    QWORD PTR [rsp]
  401166:	d9 c0                	fld    st(0)
  401168:	d9 fa                	fsqrt  
  40116a:	dd 1c 24             	fstp   QWORD PTR [rsp]
  40116d:	d9 ee                	fldz   
  40116f:	df e9                	fucomip st,st(1)
  401171:	77 0c                	ja     40117f <foo+0x29>
  401173:	dd d8                	fstp   st(0)
  401175:	f2 0f 10 04 24       	movsd  xmm0,QWORD PTR [rsp]
  40117a:	48 83 c4 18          	add    rsp,0x18
  40117e:	c3                   	ret    
  40117f:	dd 5c 24 08          	fstp   QWORD PTR [rsp+0x8]
  401183:	e8 d8 fe ff ff       	call   401060 <sqrt@plt>
  401188:	eb eb                	jmp    401175 <foo+0x1f>

000000000040118a <main>:
  40118a:	f3 0f 1e fa          	endbr64 
  40118e:	48 83 ec 18          	sub    rsp,0x18
  401192:	89 3c 24             	mov    DWORD PTR [rsp],edi
  401195:	db 04 24             	fild   DWORD PTR [rsp]
  401198:	d9 c0                	fld    st(0)
  40119a:	d9 fa                	fsqrt  
  40119c:	dd 1c 24             	fstp   QWORD PTR [rsp]
  40119f:	d9 ee                	fldz   
  4011a1:	df e9                	fucomip st,st(1)
  4011a3:	77 20                	ja     4011c5 <main+0x3b>
  4011a5:	dd d8                	fstp   st(0)
  4011a7:	f2 0f 10 04 24       	movsd  xmm0,QWORD PTR [rsp]
  4011ac:	be 04 20 40 00       	mov    esi,0x402004
  4011b1:	bf 01 00 00 00       	mov    edi,0x1
  4011b6:	b8 01 00 00 00       	mov    eax,0x1
  4011bb:	e8 90 fe ff ff       	call   401050 <__printf_chk@plt>
  4011c0:	48 83 c4 18          	add    rsp,0x18
  4011c4:	c3                   	ret    
  4011c5:	dd 5c 24 08          	fstp   QWORD PTR [rsp+0x8]
  4011c9:	f2 0f 10 44 24 08    	movsd  xmm0,QWORD PTR [rsp+0x8]
  4011cf:	e8 8c fe ff ff       	call   401060 <sqrt@plt>
  4011d4:	eb d1                	jmp    4011a7 <main+0x1d>
  4011d6:	66 2e 0f 1f 84 00 00 	nop    WORD PTR cs:[rax+rax*1+0x0]
  4011dd:	00 00 00 

00000000004011e0 <__libc_csu_init>:
  4011e0:	f3 0f 1e fa          	endbr64 
  4011e4:	41 57                	push   r15
  4011e6:	4c 8d 3d 13 2c 00 00 	lea    r15,[rip+0x2c13]        # 403e00 <__frame_dummy_init_array_entry>
  4011ed:	41 56                	push   r14
  4011ef:	49 89 d6             	mov    r14,rdx
  4011f2:	41 55                	push   r13
  4011f4:	49 89 f5             	mov    r13,rsi
  4011f7:	41 54                	push   r12
  4011f9:	41 89 fc             	mov    r12d,edi
  4011fc:	55                   	push   rbp
  4011fd:	48 8d 2d 04 2c 00 00 	lea    rbp,[rip+0x2c04]        # 403e08 <__do_global_dtors_aux_fini_array_entry>
  401204:	53                   	push   rbx
  401205:	4c 29 fd             	sub    rbp,r15
  401208:	48 83 ec 08          	sub    rsp,0x8
  40120c:	e8 ef fd ff ff       	call   401000 <_init>
  401211:	48 c1 fd 03          	sar    rbp,0x3
  401215:	74 1f                	je     401236 <__libc_csu_init+0x56>
  401217:	31 db                	xor    ebx,ebx
  401219:	0f 1f 80 00 00 00 00 	nop    DWORD PTR [rax+0x0]
  401220:	4c 89 f2             	mov    rdx,r14
  401223:	4c 89 ee             	mov    rsi,r13
  401226:	44 89 e7             	mov    edi,r12d
  401229:	41 ff 14 df          	call   QWORD PTR [r15+rbx*8]
  40122d:	48 83 c3 01          	add    rbx,0x1
  401231:	48 39 dd             	cmp    rbp,rbx
  401234:	75 ea                	jne    401220 <__libc_csu_init+0x40>
  401236:	48 83 c4 08          	add    rsp,0x8
  40123a:	5b                   	pop    rbx
  40123b:	5d                   	pop    rbp
  40123c:	41 5c                	pop    r12
  40123e:	41 5d                	pop    r13
  401240:	41 5e                	pop    r14
  401242:	41 5f                	pop    r15
  401244:	c3                   	ret    
  401245:	66 66 2e 0f 1f 84 00 	data16 nop WORD PTR cs:[rax+rax*1+0x0]
  40124c:	00 00 00 00 

0000000000401250 <__libc_csu_fini>:
  401250:	f3 0f 1e fa          	endbr64 
  401254:	c3                   	ret    

Disassemblamento della sezione .fini:

0000000000401258 <_fini>:
  401258:	f3 0f 1e fa          	endbr64 
  40125c:	48 83 ec 08          	sub    rsp,0x8
  401260:	48 83 c4 08          	add    rsp,0x8
  401264:	c3                   	ret    
